(dp0
S'9913'
p1
S'Paulina'
p2
sS'1237'
p3
S'Adam'
p4
sS'0012'
p5
S'Wiktoria'
p6
sS'2134'
p7
S'Michal'
p8
sS'1493'
p9
S'Ola'
p10
sS'2141'
p11
S'Dominik'
p12
sS'0981'
p13
S'Piotr'
p14
sS'5123'
p15
S'Mateusz'
p16
s.